; Function Attrs: nounwind uwtable
define void @Abc_NodeMffcConeSupp(ptr noundef %0, ptr noundef %1, ptr noundef %2) local_unnamed_addr #0 {
  %.not = icmp eq ptr %1, null
  br i1 %.not, label %6, label %4

4:                                                ; preds = %3
  %5 = getelementptr inbounds nuw i8, ptr %1, i64 4
  store i32 0, ptr %5, align 4
  br label %6

6:                                                ; preds = %4, %3
  %.not11 = icmp eq ptr %2, null
  br i1 %.not11, label %.split, label %.split9

.split:                                           ; preds = %6
  %7 = load ptr, ptr %0, align 8
  %8 = getelementptr inbounds nuw i8, ptr %7, i64 232
  %9 = load ptr, ptr %8, align 8
  %.not.i = icmp eq ptr %9, null
  br i1 %.not.i, label %10, label %Abc_NtkIncrementTravId.exit

10:                                               ; preds = %.split
  %11 = getelementptr inbounds nuw i8, ptr %7, i64 224
  %12 = getelementptr i8, ptr %7, i64 32
  %.val.i = load ptr, ptr %12, align 8
  %13 = getelementptr i8, ptr %.val.i, i64 4
  %.val.val.i = load i32, ptr %13, align 4
  %14 = add nsw i32 %.val.val.i, 500
  %15 = load i32, ptr %11, align 8
  %.not.i.i.i = icmp slt i32 %15, %14
  br i1 %.not.i.i.i, label %16, label %Vec_IntGrow.exit.i.i

16:                                               ; preds = %10
  %17 = sext i32 %14 to i64
  %18 = shl nsw i64 %17, 2
  %19 = tail call noalias ptr @malloc(i64 noundef %18) #9
  store ptr %19, ptr %8, align 8
  store i32 %14, ptr %11, align 8
  br label %Vec_IntGrow.exit.i.i

Vec_IntGrow.exit.i.i:                             ; preds = %16, %10
  %20 = icmp sgt i32 %.val.val.i, -500
  br i1 %20, label %.lr.ph.i.i, label %Abc_NtkIncrementTravId.exit.sink.split

.lr.ph.i.i:                                       ; preds = %Vec_IntGrow.exit.i.i
  %wide.trip.count.i.i = zext nneg i32 %14 to i64
  br label %21

21:                                               ; preds = %21, %.lr.ph.i.i
  %indvars.iv.i.i = phi i64 [ 0, %.lr.ph.i.i ], [ %indvars.iv.next.i.i, %21 ]
  %22 = load ptr, ptr %8, align 8
  %23 = getelementptr inbounds nuw i32, ptr %22, i64 %indvars.iv.i.i
  store i32 0, ptr %23, align 4
  %indvars.iv.next.i.i = add nuw nsw i64 %indvars.iv.i.i, 1
  %exitcond.not.i.i = icmp eq i64 %indvars.iv.next.i.i, %wide.trip.count.i.i
  br i1 %exitcond.not.i.i, label %Abc_NtkIncrementTravId.exit.sink.split, label %21, !llvm.loop !8

.split9:                                          ; preds = %6
  %24 = getelementptr inbounds nuw i8, ptr %2, i64 4
  store i32 0, ptr %24, align 4
  %25 = load ptr, ptr %0, align 8
  %26 = getelementptr inbounds nuw i8, ptr %25, i64 232
  %27 = load ptr, ptr %26, align 8
  %.not.i12 = icmp eq ptr %27, null
  br i1 %.not.i12, label %28, label %Abc_NtkIncrementTravId.exit

28:                                               ; preds = %.split9
  %29 = getelementptr inbounds nuw i8, ptr %25, i64 224
  %30 = getelementptr i8, ptr %25, i64 32
  %.val.i13 = load ptr, ptr %30, align 8
  %31 = getelementptr i8, ptr %.val.i13, i64 4
  %.val.val.i14 = load i32, ptr %31, align 4
  %32 = add nsw i32 %.val.val.i14, 500
  %33 = load i32, ptr %29, align 8
  %.not.i.i.i15 = icmp slt i32 %33, %32
  br i1 %.not.i.i.i15, label %34, label %Vec_IntGrow.exit.i.i16

34:                                               ; preds = %28
  %35 = sext i32 %32 to i64
  %36 = shl nsw i64 %35, 2
  %37 = tail call noalias ptr @malloc(i64 noundef %36) #9
  store ptr %37, ptr %26, align 8
  store i32 %32, ptr %29, align 8
  br label %Vec_IntGrow.exit.i.i16

Vec_IntGrow.exit.i.i16:                           ; preds = %34, %28
  %38 = icmp sgt i32 %.val.val.i14, -500
  br i1 %38, label %.lr.ph.i.i18, label %Abc_NtkIncrementTravId.exit.sink.split

.lr.ph.i.i18:                                     ; preds = %Vec_IntGrow.exit.i.i16
  %wide.trip.count.i.i19 = zext nneg i32 %32 to i64
  br label %39

39:                                               ; preds = %39, %.lr.ph.i.i18
  %indvars.iv.i.i20 = phi i64 [ 0, %.lr.ph.i.i18 ], [ %indvars.iv.next.i.i21, %39 ]
  %40 = load ptr, ptr %26, align 8
  %41 = getelementptr inbounds nuw i32, ptr %40, i64 %indvars.iv.i.i20
  store i32 0, ptr %41, align 4
  %indvars.iv.next.i.i21 = add nuw nsw i64 %indvars.iv.i.i20, 1
  %exitcond.not.i.i22 = icmp eq i64 %indvars.iv.next.i.i21, %wide.trip.count.i.i19
  br i1 %exitcond.not.i.i22, label %Abc_NtkIncrementTravId.exit.sink.split, label %39, !llvm.loop !8

Abc_NtkIncrementTravId.exit.sink.split:           ; preds = %39, %21, %Vec_IntGrow.exit.i.i16, %Vec_IntGrow.exit.i.i
  %.sink31 = phi ptr [ %7, %Vec_IntGrow.exit.i.i ], [ %25, %Vec_IntGrow.exit.i.i16 ], [ %7, %21 ], [ %25, %39 ]
  %.sink29 = phi i32 [ %14, %Vec_IntGrow.exit.i.i ], [ %32, %Vec_IntGrow.exit.i.i16 ], [ %14, %21 ], [ %32, %39 ]
  %.sink.ph = phi ptr [ null, %Vec_IntGrow.exit.i.i ], [ %2, %Vec_IntGrow.exit.i.i16 ], [ null, %21 ], [ %2, %39 ]
  %42 = getelementptr inbounds nuw i8, ptr %.sink31, i64 228
  store i32 %.sink29, ptr %42, align 4
  br label %Abc_NtkIncrementTravId.exit

Abc_NtkIncrementTravId.exit:                      ; preds = %Abc_NtkIncrementTravId.exit.sink.split, %.split9, %.split
  %.sink28 = phi ptr [ %7, %.split ], [ %25, %.split9 ], [ %.sink31, %Abc_NtkIncrementTravId.exit.sink.split ]
  %.sink = phi ptr [ null, %.split ], [ %2, %.split9 ], [ %.sink.ph, %Abc_NtkIncrementTravId.exit.sink.split ]
  %43 = getelementptr inbounds nuw i8, ptr %.sink28, i64 216
  %44 = load i32, ptr %43, align 8
  %45 = add nsw i32 %44, 1
  store i32 %45, ptr %43, align 8
  tail call void @Abc_NodeMffcConeSupp_rec(ptr noundef nonnull %0, ptr noundef %1, ptr noundef %.sink, i32 noundef 1)
  ret void
}